; Function Attrs: mustprogress uwtable
define dso_local i64 @_ZN14cmFileLockPool9ScopePool7ReleaseERKNSt7__cxx1112basic_stringIcSt11char_traitsIcESaIcEEE(ptr noundef nonnull readonly align 8 captures(none) dereferenceable(24) %0, ptr noundef nonnull align 8 dereferenceable(32) %1) local_unnamed_addr #2 align 2 {
  %3 = load ptr, ptr %0, align 8
  %4 = getelementptr inbounds nuw i8, ptr %0, i64 8
  %5 = load ptr, ptr %4, align 8
  %.not10 = icmp eq ptr %3, %5
  br i1 %.not10, label %._crit_edge, label %.lr.ph

.lr.ph:                                           ; preds = %2, %9
  %.sroa.06.011 = phi ptr [ %10, %9 ], [ %3, %2 ]
  %6 = tail call noundef zeroext i1 @_ZNK10cmFileLock8IsLockedERKNSt7__cxx1112basic_stringIcSt11char_traitsIcESaIcEEE(ptr noundef nonnull align 8 dereferenceable(40) %.sroa.06.011, ptr noundef nonnull align 8 dereferenceable(32) %1)
  br i1 %6, label %7, label %9

7:                                                ; preds = %.lr.ph
  %8 = tail call i64 @_ZN10cmFileLock7ReleaseEv(ptr noundef nonnull align 8 dereferenceable(40) %.sroa.06.011)
  br label %12

9:                                                ; preds = %.lr.ph
  %10 = getelementptr inbounds nuw i8, ptr %.sroa.06.011, i64 40
  %.not = icmp eq ptr %10, %5
  br i1 %.not, label %._crit_edge, label %.lr.ph

._crit_edge:                                      ; preds = %9, %2
  %11 = tail call i64 @_ZN16cmFileLockResult6MakeOkEv()
  br label %12

12:                                               ; preds = %._crit_edge, %7
  %.sroa.0.0 = phi i64 [ %8, %7 ], [ %11, %._crit_edge ]
  ret i64 %.sroa.0.0
}